target datalayout = "e-m:e-p270:32:32-p271:32:32-p272:64:64-i64:64-i128:128-f80:128-n8:16:32:64-S128"
target triple = "x86_64-pc-linux-gnu"

%"struct.std::thread::_State" = type { ptr }
%"struct.std::thread::_State_impl.301" = type { %"struct.std::thread::_State", %"struct.std::thread::_Invoker.302" }
%"struct.std::thread::_Invoker.302" = type { %"class.std::tuple.303" }
%"class.std::tuple.303" = type { %"struct.std::_Tuple_impl.304" }
%"struct.std::_Tuple_impl.304" = type { %"struct.std::_Tuple_impl.305", %"struct.std::_Head_base.307" }
%"struct.std::_Tuple_impl.305" = type { %"struct.std::_Head_base.306" }
%"struct.std::_Head_base.306" = type { ptr }
%"struct.std::_Head_base.307" = type { { i64, i64 } }

; Function Attrs: mustprogress nounwind uwtable
define internal noundef nonnull align 8 dereferenceable(8) ptr @"_ZNSt10_Head_baseILm1EPNSt13__future_base17_Async_state_implINSt6thread8_InvokerISt5tupleIJZN18llama_model_loader13load_all_dataEP12ggml_contextRSt13unordered_mapIjP19ggml_backend_bufferSt4hashIjESt8equal_toIjESaISt4pairIKjSA_EEEPSt6vectorISt10unique_ptrI11llama_mlockSt14default_deleteISN_EESaISQ_EEPFbfPvESU_E3$_2EEEESF_IP11ggml_tensorbEEELb0EE7_M_headERS15_"(ptr noundef nonnull align 8 dereferenceable(8) %0) #0 align 2 {
  %2 = alloca ptr, align 8
  store ptr %0, ptr %2, align 8, !tbaa !1230
  %3 = load ptr, ptr %2, align 8, !tbaa !1230
  %4 = getelementptr inbounds nuw %"struct.std::_Head_base.306", ptr %3, i32 0, i32 0
  ret ptr %4
}

; Function Attrs: mustprogress nounwind uwtable
define internal noundef nonnull align 8 dereferenceable(16) ptr @"_ZNSt10_Head_baseILm0EMNSt13__future_base17_Async_state_implINSt6thread8_InvokerISt5tupleIJZN18llama_model_loader13load_all_dataEP12ggml_contextRSt13unordered_mapIjP19ggml_backend_bufferSt4hashIjESt8equal_toIjESaISt4pairIKjSA_EEEPSt6vectorISt10unique_ptrI11llama_mlockSt14default_deleteISN_EESaISQ_EEPFbfPvESU_E3$_2EEEESF_IP11ggml_tensorbEEEFvvELb0EE7_M_headERS16_"(ptr noundef nonnull align 8 dereferenceable(16) %0) #0 align 2 {
  %2 = alloca ptr, align 8
  store ptr %0, ptr %2, align 8, !tbaa !1226
  %3 = load ptr, ptr %2, align 8, !tbaa !1226
  %4 = getelementptr inbounds nuw %"struct.std::_Head_base.307", ptr %3, i32 0, i32 0
  ret ptr %4
}

; Function Attrs: mustprogress nounwind uwtable
define internal noundef nonnull align 8 dereferenceable(8) ptr @"_ZNSt11_Tuple_implILm1EJPNSt13__future_base17_Async_state_implINSt6thread8_InvokerISt5tupleIJZN18llama_model_loader13load_all_dataEP12ggml_contextRSt13unordered_mapIjP19ggml_backend_bufferSt4hashIjESt8equal_toIjESaISt4pairIKjSA_EEEPSt6vectorISt10unique_ptrI11llama_mlockSt14default_deleteISN_EESaISQ_EEPFbfPvESU_E3$_2EEEESF_IP11ggml_tensorbEEEEE7_M_headERS15_"(ptr noundef nonnull align 8 dereferenceable(8) %0) #0 align 2 {
  %2 = alloca ptr, align 8
  store ptr %0, ptr %2, align 8, !tbaa !1224
  %3 = load ptr, ptr %2, align 8, !tbaa !1224
  %4 = call noundef nonnull align 8 dereferenceable(8) ptr @"_ZNSt10_Head_baseILm1EPNSt13__future_base17_Async_state_implINSt6thread8_InvokerISt5tupleIJZN18llama_model_loader13load_all_dataEP12ggml_contextRSt13unordered_mapIjP19ggml_backend_bufferSt4hashIjESt8equal_toIjESaISt4pairIKjSA_EEEPSt6vectorISt10unique_ptrI11llama_mlockSt14default_deleteISN_EESaISQ_EEPFbfPvESU_E3$_2EEEESF_IP11ggml_tensorbEEELb0EE7_M_headERS15_"(ptr noundef nonnull align 8 dereferenceable(8) %3) #25
  ret ptr %4
}

; Function Attrs: mustprogress nounwind uwtable
define internal noundef nonnull align 8 dereferenceable(16) ptr @"_ZNSt11_Tuple_implILm0EJMNSt13__future_base17_Async_state_implINSt6thread8_InvokerISt5tupleIJZN18llama_model_loader13load_all_dataEP12ggml_contextRSt13unordered_mapIjP19ggml_backend_bufferSt4hashIjESt8equal_toIjESaISt4pairIKjSA_EEEPSt6vectorISt10unique_ptrI11llama_mlockSt14default_deleteISN_EESaISQ_EEPFbfPvESU_E3$_2EEEESF_IP11ggml_tensorbEEEFvvEPS13_EE7_M_headERS17_"(ptr noundef nonnull align 8 dereferenceable(24) %0) #0 align 2 {
  %2 = alloca ptr, align 8
  store ptr %0, ptr %2, align 8, !tbaa !1222
  %3 = load ptr, ptr %2, align 8, !tbaa !1222
  %4 = getelementptr inbounds i8, ptr %3, i64 8
  %5 = call noundef nonnull align 8 dereferenceable(16) ptr @"_ZNSt10_Head_baseILm0EMNSt13__future_base17_Async_state_implINSt6thread8_InvokerISt5tupleIJZN18llama_model_loader13load_all_dataEP12ggml_contextRSt13unordered_mapIjP19ggml_backend_bufferSt4hashIjESt8equal_toIjESaISt4pairIKjSA_EEEPSt6vectorISt10unique_ptrI11llama_mlockSt14default_deleteISN_EESaISQ_EEPFbfPvESU_E3$_2EEEESF_IP11ggml_tensorbEEEFvvELb0EE7_M_headERS16_"(ptr noundef nonnull align 8 dereferenceable(16) %4) #25
  ret ptr %5
}

; Function Attrs: mustprogress uwtable
define internal void @"_ZSt13__invoke_implIvMNSt13__future_base17_Async_state_implINSt6thread8_InvokerISt5tupleIJZN18llama_model_loader13load_all_dataEP12ggml_contextRSt13unordered_mapIjP19ggml_backend_bufferSt4hashIjESt8equal_toIjESaISt4pairIKjSA_EEEPSt6vectorISt10unique_ptrI11llama_mlockSt14default_deleteISN_EESaISQ_EEPFbfPvESU_E3$_2EEEESF_IP11ggml_tensorbEEEFvvEPS13_JEET_St21__invoke_memfun_derefOT0_OT1_DpOT2_"(ptr noundef nonnull align 8 dereferenceable(16) %0, ptr noundef nonnull align 8 dereferenceable(8) %1) #1 {
  %3 = alloca ptr, align 8
  %4 = alloca ptr, align 8
  store ptr %0, ptr %3, align 8, !tbaa !32
  store ptr %1, ptr %4, align 8, !tbaa !1185
  %5 = load ptr, ptr %4, align 8, !tbaa !1185
  %6 = load ptr, ptr %5, align 8, !tbaa !1189
  %7 = load ptr, ptr %3, align 8, !tbaa !32
  %8 = load { i64, i64 }, ptr %7, align 8, !tbaa !103
  %9 = extractvalue { i64, i64 } %8, 1
  %10 = getelementptr inbounds i8, ptr %6, i64 %9
  %11 = extractvalue { i64, i64 } %8, 0
  %12 = and i64 %11, 1
  %13 = icmp ne i64 %12, 0
  br i1 %13, label %14, label %19

14:                                               ; preds = %2
  %15 = load ptr, ptr %10, align 8, !tbaa !608
  %16 = sub i64 %11, 1
  %17 = getelementptr i8, ptr %15, i64 %16, !nosanitize !17
  %18 = load ptr, ptr %17, align 8, !nosanitize !17
  br label %21

19:                                               ; preds = %2
  %20 = inttoptr i64 %11 to ptr
  br label %21

21:                                               ; preds = %19, %14
  %22 = phi ptr [ %18, %14 ], [ %20, %19 ]
  call void %22(ptr noundef nonnull align 8 dereferenceable(72) %10)
  ret void
}

; Function Attrs: mustprogress nounwind uwtable
define internal noundef nonnull align 8 dereferenceable(8) ptr @"_ZSt12__get_helperILm1EPNSt13__future_base17_Async_state_implINSt6thread8_InvokerISt5tupleIJZN18llama_model_loader13load_all_dataEP12ggml_contextRSt13unordered_mapIjP19ggml_backend_bufferSt4hashIjESt8equal_toIjESaISt4pairIKjSA_EEEPSt6vectorISt10unique_ptrI11llama_mlockSt14default_deleteISN_EESaISQ_EEPFbfPvESU_E3$_2EEEESF_IP11ggml_tensorbEEEJEERT0_RSt11_Tuple_implIXT_EJS15_DpT1_EE"(ptr noundef nonnull align 8 dereferenceable(8) %0) #0 {
  %2 = alloca ptr, align 8
  store ptr %0, ptr %2, align 8, !tbaa !1224
  %3 = load ptr, ptr %2, align 8, !tbaa !1224
  %4 = call noundef nonnull align 8 dereferenceable(8) ptr @"_ZNSt11_Tuple_implILm1EJPNSt13__future_base17_Async_state_implINSt6thread8_InvokerISt5tupleIJZN18llama_model_loader13load_all_dataEP12ggml_contextRSt13unordered_mapIjP19ggml_backend_bufferSt4hashIjESt8equal_toIjESaISt4pairIKjSA_EEEPSt6vectorISt10unique_ptrI11llama_mlockSt14default_deleteISN_EESaISQ_EEPFbfPvESU_E3$_2EEEESF_IP11ggml_tensorbEEEEE7_M_headERS15_"(ptr noundef nonnull align 8 dereferenceable(8) %3) #25
  ret ptr %4
}

; Function Attrs: mustprogress nounwind uwtable
define internal noundef nonnull align 8 dereferenceable(16) ptr @"_ZSt12__get_helperILm0EMNSt13__future_base17_Async_state_implINSt6thread8_InvokerISt5tupleIJZN18llama_model_loader13load_all_dataEP12ggml_contextRSt13unordered_mapIjP19ggml_backend_bufferSt4hashIjESt8equal_toIjESaISt4pairIKjSA_EEEPSt6vectorISt10unique_ptrI11llama_mlockSt14default_deleteISN_EESaISQ_EEPFbfPvESU_E3$_2EEEESF_IP11ggml_tensorbEEEFvvEJPS13_EERT0_RSt11_Tuple_implIXT_EJS17_DpT1_EE"(ptr noundef nonnull align 8 dereferenceable(24) %0) #0 {
  %2 = alloca ptr, align 8
  store ptr %0, ptr %2, align 8, !tbaa !1222
  %3 = load ptr, ptr %2, align 8, !tbaa !1222
  %4 = call noundef nonnull align 8 dereferenceable(16) ptr @"_ZNSt11_Tuple_implILm0EJMNSt13__future_base17_Async_state_implINSt6thread8_InvokerISt5tupleIJZN18llama_model_loader13load_all_dataEP12ggml_contextRSt13unordered_mapIjP19ggml_backend_bufferSt4hashIjESt8equal_toIjESaISt4pairIKjSA_EEEPSt6vectorISt10unique_ptrI11llama_mlockSt14default_deleteISN_EESaISQ_EEPFbfPvESU_E3$_2EEEESF_IP11ggml_tensorbEEEFvvEPS13_EE7_M_headERS17_"(ptr noundef nonnull align 8 dereferenceable(24) %3) #25
  ret ptr %4
}

; Function Attrs: mustprogress uwtable
define internal void @"_ZSt8__invokeIMNSt13__future_base17_Async_state_implINSt6thread8_InvokerISt5tupleIJZN18llama_model_loader13load_all_dataEP12ggml_contextRSt13unordered_mapIjP19ggml_backend_bufferSt4hashIjESt8equal_toIjESaISt4pairIKjSA_EEEPSt6vectorISt10unique_ptrI11llama_mlockSt14default_deleteISN_EESaISQ_EEPFbfPvESU_E3$_2EEEESF_IP11ggml_tensorbEEEFvvEJPS13_EENSt15__invoke_resultIT_JDpT0_EE4typeEOS18_DpOS19_"(ptr noundef nonnull align 8 dereferenceable(16) %0, ptr noundef nonnull align 8 dereferenceable(8) %1) #1 {
  %3 = alloca ptr, align 8
  %4 = alloca ptr, align 8
  store ptr %0, ptr %3, align 8, !tbaa !32
  store ptr %1, ptr %4, align 8, !tbaa !1185
  %5 = load ptr, ptr %3, align 8, !tbaa !32
  %6 = load ptr, ptr %4, align 8, !tbaa !1185
  call void @"_ZSt13__invoke_implIvMNSt13__future_base17_Async_state_implINSt6thread8_InvokerISt5tupleIJZN18llama_model_loader13load_all_dataEP12ggml_contextRSt13unordered_mapIjP19ggml_backend_bufferSt4hashIjESt8equal_toIjESaISt4pairIKjSA_EEEPSt6vectorISt10unique_ptrI11llama_mlockSt14default_deleteISN_EESaISQ_EEPFbfPvESU_E3$_2EEEESF_IP11ggml_tensorbEEEFvvEPS13_JEET_St21__invoke_memfun_derefOT0_OT1_DpOT2_"(ptr noundef nonnull align 8 dereferenceable(16) %5, ptr noundef nonnull align 8 dereferenceable(8) %6)
  ret void
}

; Function Attrs: mustprogress nounwind uwtable
define internal noundef nonnull align 8 dereferenceable(8) ptr @"_ZSt3getILm1EJMNSt13__future_base17_Async_state_implINSt6thread8_InvokerISt5tupleIJZN18llama_model_loader13load_all_dataEP12ggml_contextRSt13unordered_mapIjP19ggml_backend_bufferSt4hashIjESt8equal_toIjESaISt4pairIKjSA_EEEPSt6vectorISt10unique_ptrI11llama_mlockSt14default_deleteISN_EESaISQ_EEPFbfPvESU_E3$_2EEEESF_IP11ggml_tensorbEEEFvvEPS13_EEONSt13tuple_elementIXT_ES4_IJDpT0_EEE4typeEOS1A_"(ptr noundef nonnull align 8 dereferenceable(24) %0) #0 {
  %2 = alloca ptr, align 8
  store ptr %0, ptr %2, align 8, !tbaa !1220
  %3 = load ptr, ptr %2, align 8, !tbaa !1220
  %4 = call noundef nonnull align 8 dereferenceable(8) ptr @"_ZSt12__get_helperILm1EPNSt13__future_base17_Async_state_implINSt6thread8_InvokerISt5tupleIJZN18llama_model_loader13load_all_dataEP12ggml_contextRSt13unordered_mapIjP19ggml_backend_bufferSt4hashIjESt8equal_toIjESaISt4pairIKjSA_EEEPSt6vectorISt10unique_ptrI11llama_mlockSt14default_deleteISN_EESaISQ_EEPFbfPvESU_E3$_2EEEESF_IP11ggml_tensorbEEEJEERT0_RSt11_Tuple_implIXT_EJS15_DpT1_EE"(ptr noundef nonnull align 8 dereferenceable(8) %3) #25
  ret ptr %4
}

; Function Attrs: mustprogress nounwind uwtable
define internal noundef nonnull align 8 dereferenceable(16) ptr @"_ZSt3getILm0EJMNSt13__future_base17_Async_state_implINSt6thread8_InvokerISt5tupleIJZN18llama_model_loader13load_all_dataEP12ggml_contextRSt13unordered_mapIjP19ggml_backend_bufferSt4hashIjESt8equal_toIjESaISt4pairIKjSA_EEEPSt6vectorISt10unique_ptrI11llama_mlockSt14default_deleteISN_EESaISQ_EEPFbfPvESU_E3$_2EEEESF_IP11ggml_tensorbEEEFvvEPS13_EEONSt13tuple_elementIXT_ES4_IJDpT0_EEE4typeEOS1A_"(ptr noundef nonnull align 8 dereferenceable(24) %0) #0 {
  %2 = alloca ptr, align 8
  store ptr %0, ptr %2, align 8, !tbaa !1220
  %3 = load ptr, ptr %2, align 8, !tbaa !1220
  %4 = call noundef nonnull align 8 dereferenceable(16) ptr @"_ZSt12__get_helperILm0EMNSt13__future_base17_Async_state_implINSt6thread8_InvokerISt5tupleIJZN18llama_model_loader13load_all_dataEP12ggml_contextRSt13unordered_mapIjP19ggml_backend_bufferSt4hashIjESt8equal_toIjESaISt4pairIKjSA_EEEPSt6vectorISt10unique_ptrI11llama_mlockSt14default_deleteISN_EESaISQ_EEPFbfPvESU_E3$_2EEEESF_IP11ggml_tensorbEEEFvvEJPS13_EERT0_RSt11_Tuple_implIXT_EJS17_DpT1_EE"(ptr noundef nonnull align 8 dereferenceable(24) %3) #25
  ret ptr %4
}

; Function Attrs: mustprogress uwtable
define internal void @"_ZNSt6thread8_InvokerISt5tupleIJMNSt13__future_base17_Async_state_implINS0_IS1_IJZN18llama_model_loader13load_all_dataEP12ggml_contextRSt13unordered_mapIjP19ggml_backend_bufferSt4hashIjESt8equal_toIjESaISt4pairIKjS9_EEEPSt6vectorISt10unique_ptrI11llama_mlockSt14default_deleteISM_EESaISP_EEPFbfPvEST_E3$_2EEEESE_IP11ggml_tensorbEEEFvvEPS12_EEE9_M_invokeIJLm0ELm1EEEEvSt12_Index_tupleIJXspT_EEE"(ptr noundef nonnull align 8 dereferenceable(24) %0) #1 align 2 {
  %2 = alloca ptr, align 8
  store ptr %0, ptr %2, align 8, !tbaa !1218
  %3 = load ptr, ptr %2, align 8
  %4 = getelementptr inbounds nuw %"struct.std::thread::_Invoker.302", ptr %3, i32 0, i32 0
  %5 = call noundef nonnull align 8 dereferenceable(16) ptr @"_ZSt3getILm0EJMNSt13__future_base17_Async_state_implINSt6thread8_InvokerISt5tupleIJZN18llama_model_loader13load_all_dataEP12ggml_contextRSt13unordered_mapIjP19ggml_backend_bufferSt4hashIjESt8equal_toIjESaISt4pairIKjSA_EEEPSt6vectorISt10unique_ptrI11llama_mlockSt14default_deleteISN_EESaISQ_EEPFbfPvESU_E3$_2EEEESF_IP11ggml_tensorbEEEFvvEPS13_EEONSt13tuple_elementIXT_ES4_IJDpT0_EEE4typeEOS1A_"(ptr noundef nonnull align 8 dereferenceable(24) %4) #25
  %6 = getelementptr inbounds nuw %"struct.std::thread::_Invoker.302", ptr %3, i32 0, i32 0
  %7 = call noundef nonnull align 8 dereferenceable(8) ptr @"_ZSt3getILm1EJMNSt13__future_base17_Async_state_implINSt6thread8_InvokerISt5tupleIJZN18llama_model_loader13load_all_dataEP12ggml_contextRSt13unordered_mapIjP19ggml_backend_bufferSt4hashIjESt8equal_toIjESaISt4pairIKjSA_EEEPSt6vectorISt10unique_ptrI11llama_mlockSt14default_deleteISN_EESaISQ_EEPFbfPvESU_E3$_2EEEESF_IP11ggml_tensorbEEEFvvEPS13_EEONSt13tuple_elementIXT_ES4_IJDpT0_EEE4typeEOS1A_"(ptr noundef nonnull align 8 dereferenceable(24) %6) #25
  call void @"_ZSt8__invokeIMNSt13__future_base17_Async_state_implINSt6thread8_InvokerISt5tupleIJZN18llama_model_loader13load_all_dataEP12ggml_contextRSt13unordered_mapIjP19ggml_backend_bufferSt4hashIjESt8equal_toIjESaISt4pairIKjSA_EEEPSt6vectorISt10unique_ptrI11llama_mlockSt14default_deleteISN_EESaISQ_EEPFbfPvESU_E3$_2EEEESF_IP11ggml_tensorbEEEFvvEJPS13_EENSt15__invoke_resultIT_JDpT0_EE4typeEOS18_DpOS19_"(ptr noundef nonnull align 8 dereferenceable(16) %5, ptr noundef nonnull align 8 dereferenceable(8) %7)
  ret void
}

; Function Attrs: mustprogress uwtable
define internal void @"_ZNSt6thread8_InvokerISt5tupleIJMNSt13__future_base17_Async_state_implINS0_IS1_IJZN18llama_model_loader13load_all_dataEP12ggml_contextRSt13unordered_mapIjP19ggml_backend_bufferSt4hashIjESt8equal_toIjESaISt4pairIKjS9_EEEPSt6vectorISt10unique_ptrI11llama_mlockSt14default_deleteISM_EESaISP_EEPFbfPvEST_E3$_2EEEESE_IP11ggml_tensorbEEEFvvEPS12_EEEclEv"(ptr noundef nonnull align 8 dereferenceable(24) %0) #1 align 2 {
  %2 = alloca ptr, align 8
  store ptr %0, ptr %2, align 8, !tbaa !1218
  %3 = load ptr, ptr %2, align 8
  call void @"_ZNSt6thread8_InvokerISt5tupleIJMNSt13__future_base17_Async_state_implINS0_IS1_IJZN18llama_model_loader13load_all_dataEP12ggml_contextRSt13unordered_mapIjP19ggml_backend_bufferSt4hashIjESt8equal_toIjESaISt4pairIKjS9_EEEPSt6vectorISt10unique_ptrI11llama_mlockSt14default_deleteISM_EESaISP_EEPFbfPvEST_E3$_2EEEESE_IP11ggml_tensorbEEEFvvEPS12_EEE9_M_invokeIJLm0ELm1EEEEvSt12_Index_tupleIJXspT_EEE"(ptr noundef nonnull align 8 dereferenceable(24) %3)
  ret void
}

; Function Attrs: mustprogress uwtable
define internal void @"_ZNSt6thread11_State_implINS_8_InvokerISt5tupleIJMNSt13__future_base17_Async_state_implINS1_IS2_IJZN18llama_model_loader13load_all_dataEP12ggml_contextRSt13unordered_mapIjP19ggml_backend_bufferSt4hashIjESt8equal_toIjESaISt4pairIKjSA_EEEPSt6vectorISt10unique_ptrI11llama_mlockSt14default_deleteISN_EESaISQ_EEPFbfPvESU_E3$_2EEEESF_IP11ggml_tensorbEEEFvvEPS13_EEEEE6_M_runEv"(ptr noundef nonnull align 8 dereferenceable(32) %0) unnamed_addr #1 align 2 {
  %2 = alloca ptr, align 8
  store ptr %0, ptr %2, align 8, !tbaa !1216
  %3 = load ptr, ptr %2, align 8
  %4 = getelementptr inbounds nuw %"struct.std::thread::_State_impl.301", ptr %3, i32 0, i32 1
  call void @"_ZNSt6thread8_InvokerISt5tupleIJMNSt13__future_base17_Async_state_implINS0_IS1_IJZN18llama_model_loader13load_all_dataEP12ggml_contextRSt13unordered_mapIjP19ggml_backend_bufferSt4hashIjESt8equal_toIjESaISt4pairIKjS9_EEEPSt6vectorISt10unique_ptrI11llama_mlockSt14default_deleteISM_EESaISP_EEPFbfPvEST_E3$_2EEEESE_IP11ggml_tensorbEEEFvvEPS12_EEEclEv"(ptr noundef nonnull align 8 dereferenceable(24) %4)
  ret void
}